; Function Attrs: mustprogress uwtable
define internal noundef ptr @_ZL22pj_tinshift_destructorP8PJconstsi(ptr noundef %0, i32 noundef %1) #2 personality ptr @__gxx_personality_v0 {
  %3 = icmp eq ptr %0, null
  br i1 %3, label %12, label %4

4:                                                ; preds = %2
  %5 = getelementptr inbounds i8, ptr %0, i64 88
  %6 = load ptr, ptr %5, align 8
  %7 = icmp eq ptr %6, null
  br i1 %7, label %10, label %8

8:                                                ; preds = %4
  %9 = load ptr, ptr %6, align 8
  %.not.i.i = icmp eq ptr %9, null
  br i1 %.not.i.i, label %_ZN12_GLOBAL__N_112tinshiftDataD2Ev.exit, label %_ZNKSt14default_deleteIN8TINShift9EvaluatorEEclEPS1_.exit.i.i

_ZNKSt14default_deleteIN8TINShift9EvaluatorEEclEPS1_.exit.i.i: ; preds = %8
  tail call void @_ZN8TINShift9EvaluatorD2Ev(ptr noundef nonnull align 8 dereferenceable(48) %9) #21
  tail call void @_ZdlPv(ptr noundef nonnull %9) #27
  br label %_ZN12_GLOBAL__N_112tinshiftDataD2Ev.exit

_ZN12_GLOBAL__N_112tinshiftDataD2Ev.exit:         ; preds = %8, %_ZNKSt14default_deleteIN8TINShift9EvaluatorEEclEPS1_.exit.i.i
  tail call void @_ZdlPv(ptr noundef nonnull %6) #27
  br label %10

10:                                               ; preds = %_ZN12_GLOBAL__N_112tinshiftDataD2Ev.exit, %4
  store ptr null, ptr %5, align 8
  %11 = tail call noundef ptr @_Z21pj_default_destructorP8PJconstsi(ptr noundef nonnull %0, i32 noundef %1)
  br label %12

12:                                               ; preds = %2, %10
  %.0 = phi ptr [ %11, %10 ], [ null, %2 ]
  ret ptr %.0
}